; Function Attrs: mustprogress uwtable
define dso_local void @_ZN4i18n12phonenumbers18AsYouTypeFormatter41AttemptToChoosePatternWithPrefixExtractedEPNSt7__cxx1112basic_stringIcSt11char_traitsIcESaIcEEE(ptr noundef nonnull align 8 dereferenceable(736) initializes((248, 249), (251, 252)) %0, ptr noundef %1) local_unnamed_addr #4 align 2 personality ptr @__gxx_personality_v0 {
  %3 = getelementptr inbounds nuw i8, ptr %0, i64 248
  store i8 1, ptr %3, align 8, !tbaa !26
  %4 = getelementptr inbounds nuw i8, ptr %0, i64 251
  store i8 0, ptr %4, align 1, !tbaa !56
  %5 = getelementptr inbounds nuw i8, ptr %0, i64 712
  %6 = load ptr, ptr %5, align 8, !tbaa !67
  %.not8.i.i = icmp eq ptr %6, %5
  br i1 %.not8.i.i, label %_ZNSt7__cxx114listIPKN4i18n12phonenumbers12NumberFormatESaIS5_EE5clearEv.exit, label %.lr.ph.i.i

.lr.ph.i.i:                                       ; preds = %2, %.lr.ph.i.i
  %.09.i.i = phi ptr [ %7, %.lr.ph.i.i ], [ %6, %2 ]
  %7 = load ptr, ptr %.09.i.i, align 8, !tbaa !67
  tail call void @_ZdlPvm(ptr noundef nonnull %.09.i.i, i64 noundef 24) #22
  %.not.i.i = icmp eq ptr %7, %5
  br i1 %.not.i.i, label %_ZNSt7__cxx114listIPKN4i18n12phonenumbers12NumberFormatESaIS5_EE5clearEv.exit, label %.lr.ph.i.i, !llvm.loop !91

_ZNSt7__cxx114listIPKN4i18n12phonenumbers12NumberFormatESaIS5_EE5clearEv.exit: ; preds = %.lr.ph.i.i, %2
  %8 = getelementptr inbounds nuw i8, ptr %0, i64 720
  store ptr %5, ptr %8, align 8, !tbaa !66
  store ptr %5, ptr %5, align 8, !tbaa !67
  %9 = getelementptr inbounds nuw i8, ptr %0, i64 728
  store i64 0, ptr %9, align 8, !tbaa !68
  %10 = getelementptr inbounds nuw i8, ptr %0, i64 592
  store i32 0, ptr %10, align 8, !tbaa !62
  %11 = getelementptr inbounds nuw i8, ptr %0, i64 96
  %12 = getelementptr inbounds nuw i8, ptr %0, i64 128
  store i32 -1, ptr %12, align 8, !tbaa !19
  tail call void @_ZN4i18n12phonenumbers11UnicodeText5clearEv(ptr noundef nonnull align 8 dereferenceable(36) %11)
  %13 = getelementptr inbounds nuw i8, ptr %0, i64 136
  %14 = getelementptr inbounds nuw i8, ptr %0, i64 144
  store i64 0, ptr %14, align 8, !tbaa !15
  %15 = load ptr, ptr %13, align 8, !tbaa !58
  store i8 0, ptr %15, align 1, !tbaa !18
  tail call void @_ZN4i18n12phonenumbers18AsYouTypeFormatter32AttemptToChooseFormattingPatternEPNSt7__cxx1112basic_stringIcSt11char_traitsIcESaIcEEE(ptr noundef nonnull align 8 dereferenceable(736) %0, ptr noundef %1)
  ret void
}